(lp0
S'poi'
p1
aS'salary'
p2
aS'total_payments'
p3
aS'bonus'
p4
aS'deferred_income'
p5
aS'expenses'
p6
aS'to_messages'
p7
aS'from_poi_to_this_person'
p8
aS'from_messages'
p9
aS'from_this_person_to_poi'
p10
aS'shared_receipt_with_poi'
p11
a.